; Function Attrs: nounwind uwtable
define internal fastcc void @mpegts_free(ptr noundef %0) unnamed_addr #0 {
  %2 = getelementptr inbounds nuw i8, ptr %0, i64 128
  tail call void @av_freep(ptr noundef nonnull %2) #12
  %3 = getelementptr inbounds nuw i8, ptr %0, i64 120
  store i32 0, ptr %3, align 8, !tbaa !122
  %4 = getelementptr inbounds nuw i8, ptr %0, i64 73880
  br label %6

.preheader:                                       ; preds = %6
  %5 = getelementptr inbounds nuw i8, ptr %0, i64 8328
  br label %8

6:                                                ; preds = %1, %6
  %indvars.iv = phi i64 [ 0, %1 ], [ %indvars.iv.next, %6 ]
  %7 = getelementptr inbounds nuw [32 x ptr], ptr %4, i64 0, i64 %indvars.iv
  tail call void @av_buffer_pool_uninit(ptr noundef nonnull %7) #12
  %indvars.iv.next = add nuw nsw i64 %indvars.iv, 1
  %exitcond.not = icmp eq i64 %indvars.iv.next, 32
  br i1 %exitcond.not, label %.preheader, label %6, !llvm.loop !182

8:                                                ; preds = %.preheader, %28
  %indvars.iv16 = phi i64 [ 0, %.preheader ], [ %indvars.iv.next17, %28 ]
  %9 = getelementptr inbounds nuw [8192 x ptr], ptr %5, i64 0, i64 %indvars.iv16
  %10 = load ptr, ptr %9, align 8, !tbaa !46
  %.not = icmp eq ptr %10, null
  br i1 %.not, label %28, label %11

11:                                               ; preds = %8
  %12 = load i32, ptr %10, align 8, !tbaa !63
  %13 = getelementptr inbounds nuw i8, ptr %10, i64 28
  %14 = load i32, ptr %13, align 4, !tbaa !62
  switch i32 %14, label %mpegts_close_filter.exit [
    i32 1, label %15
    i32 0, label %17
  ]

15:                                               ; preds = %11
  %16 = getelementptr inbounds nuw i8, ptr %10, i64 56
  br label %.sink.split.i

17:                                               ; preds = %11
  %18 = getelementptr inbounds nuw i8, ptr %10, i64 40
  %19 = load ptr, ptr %18, align 8, !tbaa !9
  %20 = getelementptr inbounds nuw i8, ptr %19, i64 368
  tail call void @av_buffer_unref(ptr noundef nonnull %20) #12
  %21 = getelementptr inbounds nuw i8, ptr %19, i64 32
  %22 = load ptr, ptr %21, align 8, !tbaa !103
  %.not.i = icmp eq ptr %22, null
  br i1 %.not.i, label %.sink.split.i, label %23

23:                                               ; preds = %17
  %24 = getelementptr inbounds nuw i8, ptr %19, i64 432
  %25 = load i32, ptr %24, align 8, !tbaa !121
  %.not11.i = icmp eq i32 %25, 0
  br i1 %.not11.i, label %mpegts_close_filter.exit, label %.sink.split.i

.sink.split.i:                                    ; preds = %23, %17, %15
  %.sink.i = phi ptr [ %16, %15 ], [ %18, %23 ], [ %18, %17 ]
  tail call void @av_freep(ptr noundef nonnull %.sink.i) #12
  br label %mpegts_close_filter.exit

mpegts_close_filter.exit:                         ; preds = %11, %23, %.sink.split.i
  tail call void @av_free(ptr noundef nonnull %10) #12
  %26 = sext i32 %12 to i64
  %27 = getelementptr inbounds [8192 x ptr], ptr %5, i64 0, i64 %26
  store ptr null, ptr %27, align 8, !tbaa !46
  br label %28

28:                                               ; preds = %8, %mpegts_close_filter.exit
  %indvars.iv.next17 = add nuw nsw i64 %indvars.iv16, 1
  %exitcond19.not = icmp eq i64 %indvars.iv.next17, 8192
  br i1 %exitcond19.not, label %29, label %8, !llvm.loop !183

29:                                               ; preds = %28
  ret void
}